target datalayout = "e-m:e-p270:32:32-p271:32:32-p272:64:64-i64:64-i128:128-f80:128-n8:16:32:64-S128"
target triple = "x86_64-pc-linux-gnu"

; Function Attrs: mustprogress nounwind uwtable
define noundef signext i8 @_ZN6icu_7717DateFormatSymbols14isNumericFieldE16UDateFormatFieldi(i32 noundef %0, i32 noundef %1) #0 align 2 {
  %3 = alloca i8, align 1
  %4 = alloca i32, align 4
  %5 = alloca i32, align 4
  %6 = alloca i64, align 8
  store i32 %0, ptr %4, align 4, !tbaa !166
  store i32 %1, ptr %5, align 4, !tbaa !14
  %7 = load i32, ptr %4, align 4, !tbaa !166
  %8 = icmp eq i32 %7, 38
  br i1 %8, label %9, label %10

9:                                                ; preds = %2
  store i8 0, ptr %3, align 1
  br label %29

10:                                               ; preds = %2
  call void @llvm.lifetime.start.p0(i64 8, ptr %6) #14
  %11 = load i32, ptr %4, align 4, !tbaa !166
  %12 = zext i32 %11 to i64
  %13 = shl i64 1, %12
  store i64 %13, ptr %6, align 8, !tbaa !18
  %14 = load i64, ptr %6, align 8, !tbaa !18
  %15 = and i64 17187585530, %14
  %16 = icmp ne i64 %15, 0
  br i1 %16, label %26, label %17

17:                                               ; preds = %10
  %18 = load i64, ptr %6, align 8, !tbaa !18
  %19 = and i64 503840772, %18
  %20 = icmp ne i64 %19, 0
  br i1 %20, label %21, label %24

21:                                               ; preds = %17
  %22 = load i32, ptr %5, align 4, !tbaa !14
  %23 = icmp slt i32 %22, 3
  br label %24

24:                                               ; preds = %21, %17
  %25 = phi i1 [ false, %17 ], [ %23, %21 ]
  br label %26

26:                                               ; preds = %24, %10
  %27 = phi i1 [ true, %10 ], [ %25, %24 ]
  %28 = zext i1 %27 to i8
  store i8 %28, ptr %3, align 1
  call void @llvm.lifetime.end.p0(i64 8, ptr %6) #14
  br label %29

29:                                               ; preds = %26, %9
  %30 = load i8, ptr %3, align 1
  ret i8 %30
}