; Function Attrs: mustprogress nofree norecurse nosync nounwind willreturn memory(none) uwtable
define noundef signext range(i8 0, 2) i8 @_ZN6icu_7717DateFormatSymbols14isNumericFieldE16UDateFormatFieldi(i32 noundef %0, i32 noundef %1) local_unnamed_addr #11 align 2 {
  %3 = icmp eq i32 %0, 38
  br i1 %3, label %14, label %4

4:                                                ; preds = %2
  %5 = zext nneg i32 %0 to i64
  %6 = shl nuw i64 1, %5
  %7 = and i64 %6, 17187585530
  %.not = icmp eq i64 %7, 0
  br i1 %.not, label %8, label %14

8:                                                ; preds = %4
  %9 = and i64 %6, 503840772
  %10 = icmp ne i64 %9, 0
  %11 = icmp slt i32 %1, 3
  %12 = and i1 %11, %10
  %13 = zext i1 %12 to i8
  br label %14

14:                                               ; preds = %4, %8, %2
  %.0 = phi i8 [ 0, %2 ], [ 1, %4 ], [ %13, %8 ]
  ret i8 %.0
}